; Function Attrs: nounwind uwtable
define dso_local i32 @typenameTypeId(ptr noundef %0, ptr noundef readonly captures(none) %1) local_unnamed_addr #0 {
  %3 = tail call ptr @typenameType(ptr noundef %0, ptr noundef %1, ptr noundef null)
  %4 = getelementptr i8, ptr %3, i64 16
  %.val = load ptr, ptr %4, align 8
  %5 = getelementptr inbounds nuw i8, ptr %.val, i64 22
  %6 = load i8, ptr %5, align 2
  %7 = zext i8 %6 to i64
  %8 = getelementptr inbounds nuw i8, ptr %.val, i64 %7
  %9 = load i32, ptr %8, align 4
  tail call void @ReleaseSysCache(ptr noundef nonnull %3) #7
  ret i32 %9
}